; Function Attrs: nounwind uwtable
define internal void @handle_surface_leave(ptr noundef captures(none) %0, ptr noundef %1, ptr noundef %2) #0 {
  %4 = tail call zeroext i1 @SDL_WAYLAND_own_output(ptr noundef %2) #15
  br i1 %4, label %5, label %10

5:                                                ; preds = %3
  %6 = tail call zeroext i1 @SDL_WAYLAND_own_surface(ptr noundef %1) #15
  br i1 %6, label %7, label %10

7:                                                ; preds = %5
  %8 = load ptr, ptr @WAYLAND_wl_proxy_get_user_data, align 8
  %9 = tail call ptr %8(ptr noundef %2) #15
  tail call void @Wayland_RemoveOutputFromWindow(ptr noundef %0, ptr noundef %9)
  br label %10

10:                                               ; preds = %3, %5, %7
  ret void
}